(lp1
ccopy_reg
_reconstructor
p2
(cVertex
Vertex
p3
c__builtin__
object
p4
NtRp5
(dp6
S'cost'
p7
F0
sS'controlInput'
p8
F0
sS'parent'
p9
I0
sS'time'
p10
F10
sS'y'
F3.5698456389256812
sS'x'
F1.3833682147672057
sS'theta'
p11
F0
sbag2
(g3
g4
NtRp12
(dp13
g7
F0
sg8
F0
sg9
I0
sg10
F10
sS'y'
F-2.0148453773591779
sS'x'
F6.5941685662524137
sg11
F0
sbag2
(g3
g4
NtRp14
(dp15
g7
F0
sg8
F0
sg9
I0
sg10
F10
sS'y'
F-6.3602889934913946
sS'x'
F-6.9733863088353427
sg11
F0
sbag2
(g3
g4
NtRp16
(dp17
g7
F0
sg8
F0
sg9
I0
sg10
F10
sS'y'
F-6.601921390050566
sS'x'
F-2.6093396178981196
sg11
F0
sbag2
(g3
g4
NtRp18
(dp19
g7
F0
sg8
F0
sg9
I0
sg10
F10
sS'y'
F6.2239744356157125
sS'x'
F2.0798657204809938
sg11
F0
sbag2
(g3
g4
NtRp20
(dp21
g7
F0
sg8
F0
sg9
I0
sg10
F10
sS'y'
F-1.9604858703958872
sS'x'
F7.4383035783122615
sg11
F0
sbag2
(g3
g4
NtRp22
(dp23
g7
F0
sg8
F0
sg9
I0
sg10
F10
sS'y'
F-2.789065907533117
sS'x'
F-1.3016613308939853
sg11
F0
sbag2
(g3
g4
NtRp24
(dp25
g7
F0
sg8
F0
sg9
I0
sg10
F10
sS'y'
F-8.3901939725041856
sS'x'
F-5.7511753115262856
sg11
F0
sbag2
(g3
g4
NtRp26
(dp27
g7
F0
sg8
F0
sg9
I0
sg10
F10
sS'y'
F0.2563144895130236
sS'x'
F5.5780122939580892
sg11
F0
sbag2
(g3
g4
NtRp28
(dp29
g7
F0
sg8
F0
sg9
I0
sg10
F10
sS'y'
F-1.772072848821499
sS'x'
F-6.5757968299389127
sg11
F0
sbag2
(g3
g4
NtRp30
(dp31
g7
F0
sg8
F0
sg9
I0
sg10
F10
sS'y'
F6.4694656088153462
sS'x'
F-5.5111011386608029
sg11
F0
sbag2
(g3
g4
NtRp32
(dp33
g7
F0
sg8
F0
sg9
I0
sg10
F10
sS'y'
F7.9965722425816779
sS'x'
F8.162427283467327
sg11
F0
sbag2
(g3
g4
NtRp34
(dp35
g7
F0
sg8
F0
sg9
I0
sg10
F10
sS'y'
F3.723754594299912
sS'x'
F4.6853226806911135
sg11
F0
sbag2
(g3
g4
NtRp36
(dp37
g7
F0
sg8
F0
sg9
I0
sg10
F10
sS'y'
F7.4223354416530718
sS'x'
F1.3142837422103604
sg11
F0
sbag2
(g3
g4
NtRp38
(dp39
g7
F0
sg8
F0
sg9
I0
sg10
F10
sS'y'
F2.2711712007698814
sS'x'
F7.1304793834915898
sg11
F0
sbag2
(g3
g4
NtRp40
(dp41
g7
F0
sg8
F0
sg9
I0
sg10
F10
sS'y'
F-0.75891846602735313
sS'x'
F2.0702838029102058
sg11
F0
sbag2
(g3
g4
NtRp42
(dp43
g7
F0
sg8
F0
sg9
I0
sg10
F10
sS'y'
F-8.7544702596186355
sS'x'
F-5.2059200871172537
sg11
F0
sbag2
(g3
g4
NtRp44
(dp45
g7
F0
sg8
F0
sg9
I0
sg10
F10
sS'y'
F3.4884022206149776
sS'x'
F3.0053548680511319
sg11
F0
sbag2
(g3
g4
NtRp46
(dp47
g7
F0
sg8
F0
sg9
I0
sg10
F10
sS'y'
F-8.2265655709204086
sS'x'
F-0.43639164809536801
sg11
F0
sbag2
(g3
g4
NtRp48
(dp49
g7
F0
sg8
F0
sg9
I0
sg10
F10
sS'y'
F1.8379173277381309
sS'x'
F-3.9831329405336415
sg11
F0
sbag2
(g3
g4
NtRp50
(dp51
g7
F0
sg8
F0
sg9
I0
sg10
F10
sS'y'
F-2.6913150085572886
sS'x'
F-8.7652604320780068
sg11
F0
sbag2
(g3
g4
NtRp52
(dp53
g7
F0
sg8
F0
sg9
I0
sg10
F10
sS'y'
F-7.583779075156083
sS'x'
F-6.750771904002141
sg11
F0
sbag2
(g3
g4
NtRp54
(dp55
g7
F0
sg8
F0
sg9
I0
sg10
F10
sS'y'
F-2.2570656311516792
sS'x'
F3.7474348450499537
sg11
F0
sbag2
(g3
g4
NtRp56
(dp57
g7
F0
sg8
F0
sg9
I0
sg10
F10
sS'y'
F3.8385820604843737
sS'x'
F-2.8286157738746303
sg11
F0
sbag2
(g3
g4
NtRp58
(dp59
g7
F0
sg8
F0
sg9
I0
sg10
F10
sS'y'
F-3.1313232046873818
sS'x'
F2.445488803330214
sg11
F0
sbag2
(g3
g4
NtRp60
(dp61
g7
F0
sg8
F0
sg9
I0
sg10
F10
sS'y'
F-3.5822085629359108
sS'x'
F-6.0459818366601121
sg11
F0
sbag2
(g3
g4
NtRp62
(dp63
g7
F0
sg8
F0
sg9
I0
sg10
F10
sS'y'
F3.9389149086760362
sS'x'
F7.3715904383042741
sg11
F0
sbag2
(g3
g4
NtRp64
(dp65
g7
F0
sg8
F0
sg9
I0
sg10
F10
sS'y'
F4.8304329406467641
sS'x'
F4.1003928242540937
sg11
F0
sbag2
(g3
g4
NtRp66
(dp67
g7
F0
sg8
F0
sg9
I0
sg10
F10
sS'y'
F-5.1815916166351208
sS'x'
F-8.0902328985807639
sg11
F0
sbag2
(g3
g4
NtRp68
(dp69
g7
F0
sg8
F0
sg9
I0
sg10
F10
sS'y'
F5.9242410443219065
sS'x'
F-6.3942327424961736
sg11
F0
sbag2
(g3
g4
NtRp70
(dp71
g7
F0
sg8
F0
sg9
I0
sg10
F10
sS'y'
F-2.4691764678061299
sS'x'
F8.174175726938067
sg11
F0
sbag2
(g3
g4
NtRp72
(dp73
g7
F0
sg8
F0
sg9
I0
sg10
F10
sS'y'
F-7.5993313026862532
sS'x'
F8.1635667516550328
sg11
F0
sbag2
(g3
g4
NtRp74
(dp75
g7
F0
sg8
F0
sg9
I0
sg10
F10
sS'y'
F1.7918169661417238
sS'x'
F2.5638998587524267
sg11
F0
sbag2
(g3
g4
NtRp76
(dp77
g7
F0
sg8
F0
sg9
I0
sg10
F10
sS'y'
F6.1048405760803011
sS'x'
F7.3779084822084151
sg11
F0
sbag2
(g3
g4
NtRp78
(dp79
g7
F0
sg8
F0
sg9
I0
sg10
F10
sS'y'
F-4.3281388438776771
sS'x'
F0.025944033116791942
sg11
F0
sbag2
(g3
g4
NtRp80
(dp81
g7
F0
sg8
F0
sg9
I0
sg10
F10
sS'y'
F8.972313277364016
sS'x'
F-7.6989130141617537
sg11
F0
sbag2
(g3
g4
NtRp82
(dp83
g7
F0
sg8
F0
sg9
I0
sg10
F10
sS'y'
F8.7777370878034091
sS'x'
F-1.5724121469160739
sg11
F0
sbag2
(g3
g4
NtRp84
(dp85
g7
F0
sg8
F0
sg9
I0
sg10
F10
sS'y'
F-7.3964337050497537
sS'x'
F-2.6018497209823277
sg11
F0
sbag2
(g3
g4
NtRp86
(dp87
g7
F0
sg8
F0
sg9
I0
sg10
F10
sS'y'
F2.3645938187872311
sS'x'
F-5.2168141914294317
sg11
F0
sbag2
(g3
g4
NtRp88
(dp89
g7
F0
sg8
F0
sg9
I0
sg10
F10
sS'y'
F8.5984699182492257
sS'x'
F-2.2706473120190358
sg11
F0
sbag2
(g3
g4
NtRp90
(dp91
g7
F0
sg8
F0
sg9
I0
sg10
F10
sS'y'
F1.437713649343495
sS'x'
F2.9983790668627428
sg11
F0
sbag2
(g3
g4
NtRp92
(dp93
g7
F0
sg8
F0
sg9
I0
sg10
F10
sS'y'
F-2.2883460728757079
sS'x'
F3.4865808541199463
sg11
F0
sbag2
(g3
g4
NtRp94
(dp95
g7
F0
sg8
F0
sg9
I0
sg10
F10
sS'y'
F4.8602087826714033
sS'x'
F-7.7221328408697714
sg11
F0
sbag2
(g3
g4
NtRp96
(dp97
g7
F0
sg8
F0
sg9
I0
sg10
F10
sS'y'
F-8.8742456716273974
sS'x'
F7.8741585363374043
sg11
F0
sbag2
(g3
g4
NtRp98
(dp99
g7
F0
sg8
F0
sg9
I0
sg10
F10
sS'y'
F5.4921635923292431
sS'x'
F1.5860454150215446
sg11
F0
sbag2
(g3
g4
NtRp100
(dp101
g7
F0
sg8
F0
sg9
I0
sg10
F10
sS'y'
F3.719492790134117
sS'x'
F2.8285612314393997
sg11
F0
sbag2
(g3
g4
NtRp102
(dp103
g7
F0
sg8
F0
sg9
I0
sg10
F10
sS'y'
F8.1447071039534968
sS'x'
F4.5248341297658889
sg11
F0
sbag2
(g3
g4
NtRp104
(dp105
g7
F0
sg8
F0
sg9
I0
sg10
F10
sS'y'
F2.3692421465122138
sS'x'
F7.4415977730815079
sg11
F0
sbag2
(g3
g4
NtRp106
(dp107
g7
F0
sg8
F0
sg9
I0
sg10
F10
sS'y'
F5.9062060116679351
sS'x'
F3.112250577977246
sg11
F0
sbag2
(g3
g4
NtRp108
(dp109
g7
F0
sg8
F0
sg9
I0
sg10
F10
sS'y'
F-4.9810227729761003
sS'x'
F3.494347201066379
sg11
F0
sbag2
(g3
g4
NtRp110
(dp111
g7
F0
sg8
F0
sg9
I0
sg10
F10
sS'y'
F-6.7021581413946372
sS'x'
F-1.4864623278992628
sg11
F0
sbag2
(g3
g4
NtRp112
(dp113
g7
F0
sg8
F0
sg9
I0
sg10
F10
sS'y'
F-7.9010234783712434
sS'x'
F8.2499390779160393
sg11
F0
sbag2
(g3
g4
NtRp114
(dp115
g7
F0
sg8
F0
sg9
I0
sg10
F10
sS'y'
F-7.3699960815883756
sS'x'
F-7.6876289573662442
sg11
F0
sbag2
(g3
g4
NtRp116
(dp117
g7
F0
sg8
F0
sg9
I0
sg10
F10
sS'y'
F-6.2835780310556002
sS'x'
F1.2080930954170075
sg11
F0
sbag2
(g3
g4
NtRp118
(dp119
g7
F0
sg8
F0
sg9
I0
sg10
F10
sS'y'
F-5.5224591553829292
sS'x'
F3.4861277396586345
sg11
F0
sbag2
(g3
g4
NtRp120
(dp121
g7
F0
sg8
F0
sg9
I0
sg10
F10
sS'y'
F0.5483117823829442
sS'x'
F8.255044310306868
sg11
F0
sbag2
(g3
g4
NtRp122
(dp123
g7
F0
sg8
F0
sg9
I0
sg10
F10
sS'y'
F4.5181266340751325
sS'x'
F-5.0384084716812705
sg11
F0
sbag2
(g3
g4
NtRp124
(dp125
g7
F0
sg8
F0
sg9
I0
sg10
F10
sS'y'
F-7.9374180541628654
sS'x'
F-1.5573309845435235
sg11
F0
sbag2
(g3
g4
NtRp126
(dp127
g7
F0
sg8
F0
sg9
I0
sg10
F10
sS'y'
F1.8391720496702995
sS'x'
F3.3142787124629542
sg11
F0
sbag2
(g3
g4
NtRp128
(dp129
g7
F0
sg8
F0
sg9
I0
sg10
F10
sS'y'
F3.3163052125919332
sS'x'
F7.4188590644557948
sg11
F0
sbag2
(g3
g4
NtRp130
(dp131
g7
F0
sg8
F0
sg9
I0
sg10
F10
sS'y'
F6.9200040431374354
sS'x'
F-0.88356618031264134
sg11
F0
sbag2
(g3
g4
NtRp132
(dp133
g7
F0
sg8
F0
sg9
I0
sg10
F10
sS'y'
F-1.1747597780293484
sS'x'
F-0.56937102430199715
sg11
F0
sbag2
(g3
g4
NtRp134
(dp135
g7
F0
sg8
F0
sg9
I0
sg10
F10
sS'y'
F-5.4037604980031837
sS'x'
F-0.50978112137178755
sg11
F0
sbag2
(g3
g4
NtRp136
(dp137
g7
F0
sg8
F0
sg9
I0
sg10
F10
sS'y'
F2.7900388069423343
sS'x'
F8.0888608274933134
sg11
F0
sbag2
(g3
g4
NtRp138
(dp139
g7
F0
sg8
F0
sg9
I0
sg10
F10
sS'y'
F4.2573419695838037
sS'x'
F8.8422554440678134
sg11
F0
sbag2
(g3
g4
NtRp140
(dp141
g7
F0
sg8
F0
sg9
I0
sg10
F10
sS'y'
F-6.1236847718520195
sS'x'
F-0.095344516858890671
sg11
F0
sbag2
(g3
g4
NtRp142
(dp143
g7
F0
sg8
F0
sg9
I0
sg10
F10
sS'y'
F-7.9568756403385148
sS'x'
F-5.0220121887786311
sg11
F0
sbag2
(g3
g4
NtRp144
(dp145
g7
F0
sg8
F0
sg9
I0
sg10
F10
sS'y'
F-4.43694967948226
sS'x'
F-4.0369580160986747
sg11
F0
sbag2
(g3
g4
NtRp146
(dp147
g7
F0
sg8
F0
sg9
I0
sg10
F10
sS'y'
F-8.220161739061421
sS'x'
F5.4885257058462749
sg11
F0
sbag2
(g3
g4
NtRp148
(dp149
g7
F0
sg8
F0
sg9
I0
sg10
F10
sS'y'
F-7.3588618905340457
sS'x'
F8.8157604998692278
sg11
F0
sbag2
(g3
g4
NtRp150
(dp151
g7
F0
sg8
F0
sg9
I0
sg10
F10
sS'y'
F6.4635550287102603
sS'x'
F6.8288752453977288
sg11
F0
sbag2
(g3
g4
NtRp152
(dp153
g7
F0
sg8
F0
sg9
I0
sg10
F10
sS'y'
F-6.3135069572700244
sS'x'
F5.4329409530553434
sg11
F0
sbag2
(g3
g4
NtRp154
(dp155
g7
F0
sg8
F0
sg9
I0
sg10
F10
sS'y'
F3.1428684576628569
sS'x'
F2.6996731348561802
sg11
F0
sbag2
(g3
g4
NtRp156
(dp157
g7
F0
sg8
F0
sg9
I0
sg10
F10
sS'y'
F-2.1849254170071237
sS'x'
F4.5442438467121864
sg11
F0
sbag2
(g3
g4
NtRp158
(dp159
g7
F0
sg8
F0
sg9
I0
sg10
F10
sS'y'
F-2.5433864247254352
sS'x'
F8.6884735015106109
sg11
F0
sbag2
(g3
g4
NtRp160
(dp161
g7
F0
sg8
F0
sg9
I0
sg10
F10
sS'y'
F-2.9991897813709336
sS'x'
F-1.955070017842802
sg11
F0
sbag2
(g3
g4
NtRp162
(dp163
g7
F0
sg8
F0
sg9
I0
sg10
F10
sS'y'
F8.8339886470400444
sS'x'
F3.1922528713869838
sg11
F0
sbag2
(g3
g4
NtRp164
(dp165
g7
F0
sg8
F0
sg9
I0
sg10
F10
sS'y'
F-4.680498161228031
sS'x'
F3.4047944278184357
sg11
F0
sbag2
(g3
g4
NtRp166
(dp167
g7
F0
sg8
F0
sg9
I0
sg10
F10
sS'y'
F-1.0470673740348859
sS'x'
F0.78373042521526592
sg11
F0
sbag2
(g3
g4
NtRp168
(dp169
g7
F0
sg8
F0
sg9
I0
sg10
F10
sS'y'
F-4.1156055659597826
sS'x'
F1.9048435442166394
sg11
F0
sbag2
(g3
g4
NtRp170
(dp171
g7
F0
sg8
F0
sg9
I0
sg10
F10
sS'y'
F2.5820706426334876
sS'x'
F-7.1194223741881366
sg11
F0
sbag2
(g3
g4
NtRp172
(dp173
g7
F0
sg8
F0
sg9
I0
sg10
F10
sS'y'
F-1.2164146930777395
sS'x'
F0.37667542990590697
sg11
F0
sbag2
(g3
g4
NtRp174
(dp175
g7
F0
sg8
F0
sg9
I0
sg10
F10
sS'y'
F-0.2530460268558663
sS'x'
F7.404227157462163
sg11
F0
sbag2
(g3
g4
NtRp176
(dp177
g7
F0
sg8
F0
sg9
I0
sg10
F10
sS'y'
F-5.3852630196960476
sS'x'
F5.4598914924325115
sg11
F0
sbag2
(g3
g4
NtRp178
(dp179
g7
F0
sg8
F0
sg9
I0
sg10
F10
sS'y'
F1.2952865533031392
sS'x'
F3.2914072747139116
sg11
F0
sbag2
(g3
g4
NtRp180
(dp181
g7
F0
sg8
F0
sg9
I0
sg10
F10
sS'y'
F-5.6391934749065573
sS'x'
F-8.6441291343887841
sg11
F0
sbag2
(g3
g4
NtRp182
(dp183
g7
F0
sg8
F0
sg9
I0
sg10
F10
sS'y'
F3.6572280762156701
sS'x'
F-5.8315777309565053
sg11
F0
sbag2
(g3
g4
NtRp184
(dp185
g7
F0
sg8
F0
sg9
I0
sg10
F10
sS'y'
F-3.5902499620249122
sS'x'
F0.25578069072065368
sg11
F0
sbag2
(g3
g4
NtRp186
(dp187
g7
F0
sg8
F0
sg9
I0
sg10
F10
sS'y'
F-5.7301720358254116
sS'x'
F-3.1202863692218603
sg11
F0
sbag2
(g3
g4
NtRp188
(dp189
g7
F0
sg8
F0
sg9
I0
sg10
F10
sS'y'
F-6.3323735528221405
sS'x'
F-4.3733629410861319
sg11
F0
sbag2
(g3
g4
NtRp190
(dp191
g7
F0
sg8
F0
sg9
I0
sg10
F10
sS'y'
F0.39590298721565453
sS'x'
F-7.2243765532981179
sg11
F0
sbag2
(g3
g4
NtRp192
(dp193
g7
F0
sg8
F0
sg9
I0
sg10
F10
sS'y'
F2.6886694538845148
sS'x'
F8.7404284355663648
sg11
F0
sbag2
(g3
g4
NtRp194
(dp195
g7
F0
sg8
F0
sg9
I0
sg10
F10
sS'y'
F7.9403611651710797
sS'x'
F3.8076263100459187
sg11
F0
sbag2
(g3
g4
NtRp196
(dp197
g7
F0
sg8
F0
sg9
I0
sg10
F10
sS'y'
F6.8586371782667825
sS'x'
F-7.4326189001605023
sg11
F0
sbag2
(g3
g4
NtRp198
(dp199
g7
F0
sg8
F0
sg9
I0
sg10
F10
sS'y'
F-2.4766373339454084
sS'x'
F-7.8945814090793958
sg11
F0
sbag2
(g3
g4
NtRp200
(dp201
g7
F0
sg8
F0
sg9
I0
sg10
F10
sS'y'
F5.8460202077664043
sS'x'
F6.4500294422716937
sg11
F0
sbag2
(g3
g4
NtRp202
(dp203
g7
F0
sg8
F0
sg9
I0
sg10
F10
sS'y'
F1.2603072048884663
sS'x'
F-4.1484548044741913
sg11
F0
sbag2
(g3
g4
NtRp204
(dp205
g7
F0
sg8
F0
sg9
I0
sg10
F10
sS'y'
F-6.3203966365392592
sS'x'
F-0.46507959433285961
sg11
F0
sbag2
(g3
g4
NtRp206
(dp207
g7
F0
sg8
F0
sg9
I0
sg10
F10
sS'y'
F5.6618505788946543
sS'x'
F-4.0818873948542791
sg11
F0
sbag2
(g3
g4
NtRp208
(dp209
g7
F0
sg8
F0
sg9
I0
sg10
F10
sS'y'
F6.4880979537522556
sS'x'
F-7.3265787621262266
sg11
F0
sba.