(lp1
ccopy_reg
_reconstructor
p2
(cVertex
Vertex
p3
c__builtin__
object
p4
NtRp5
(dp6
S'parent'
p7
I-1
sS'cost'
p8
F0
sS'controlInput'
p9
F0
sS'time'
p10
F0
sS'y'
F0.74996042039031352
sS'x'
F-2.2384885655346158
sS'theta'
p11
cnumpy.core.multiarray
scalar
p12
(cnumpy
dtype
p13
(S'f8'
I0
I1
tRp14
(I3
S'<'
NNNI-1
I-1
I0
tbS'\x0eQ\xe7\xd5Q\xa9\xe7?'
tRp15
sba.